Certificate:
    Data:
        Version: 3 (0x2)
        Serial Number:
            69:8f:a9:dd:37:cb:40:a8:1a:aa:89:52:0e:7f:2c:bf:1e:14:5e:03
        Signature Algorithm: sha256WithRSAEncryption
        Issuer: C=US, ST=CA, L=Saratoga, O=Excelfore, OU=OMA, CN=CA/emailAddress=pawel@excelfore.com
        Validity
            Not Before: Feb 22 00:00:00 2025 GMT
            Not After : Feb 22 13:44:49 2035 GMT
        Subject: C=US, ST=CA, L=Saratoga, O=Excelfore, OU=xl4_developer, CN=prinsha.p51@wipro.com
        Subject Public Key Info:
            Public Key Algorithm: rsaEncryption
                RSA Public-Key: (2048 bit)
                Modulus:
                    00:ad:06:42:d1:b7:cb:0c:19:c9:11:f4:d9:d5:54:
                    08:8d:e4:45:50:e5:4d:4a:35:2b:03:4d:1b:22:12:
                    f5:ce:7c:fa:a9:85:6d:9e:00:2a:c2:61:bb:50:dd:
                    6d:03:b5:c2:b6:d5:cf:94:d9:34:0e:41:1f:36:b5:
                    92:5c:d8:ca:11:a1:ff:2a:5f:db:40:52:d5:1a:b8:
                    56:df:51:a2:09:e2:09:88:2e:78:05:ef:84:3c:f1:
                    33:dc:9f:51:b6:a4:ad:99:15:fc:97:2a:1c:87:67:
                    50:19:b7:33:f9:9b:cf:4a:c4:15:c4:2f:7d:58:f5:
                    1e:e4:b0:e3:0e:00:82:95:32:be:b7:ec:a3:71:1a:
                    de:a6:e1:4c:45:18:80:73:da:04:5a:40:48:d4:b6:
                    f0:09:4a:28:fa:89:12:c6:30:e7:15:bc:d9:7e:32:
                    a4:fe:6b:f1:1f:4b:d9:73:5b:c7:8f:1d:b4:e4:d5:
                    9c:4c:cf:86:f0:2a:f4:2d:fe:cd:27:ca:d3:e3:63:
                    b8:b2:3e:fc:41:97:8d:61:d2:ff:9e:7d:bd:6d:05:
                    0b:20:d1:55:31:aa:0b:c0:c2:64:c9:30:85:0f:fe:
                    52:01:a1:b6:9d:1c:75:59:81:0b:34:ed:df:d5:83:
                    df:e0:a3:97:19:63:77:ee:d4:d4:f4:1a:fd:7a:90:
                    70:cb
                Exponent: 65537 (0x10001)
        X509v3 extensions:
            X509v3 Basic Constraints: 
                CA:FALSE
            Netscape Comment: 
                Excelfore device cert
            X509v3 Subject Key Identifier: 
                C8:63:10:39:E9:E4:A8:6E:89:07:59:D8:2D:50:6F:2B:EC:4C:E4:67
            X509v3 Authority Key Identifier: 
                keyid:30:D4:CB:88:E0:6A:C6:48:DD:04:DD:90:37:DA:42:09:F5:0E:5B:AB

            1.3.6.1.4.1.45473.1.4: 
                . esync_sso::prinsha.p51@wipro.com
            1.3.6.1.4.1.45473.1.1: 
                1...sign
            1.3.6.1.4.1.45473.1.11: 
                1...default
    Signature Algorithm: sha256WithRSAEncryption
         23:a3:12:76:07:54:fd:c1:d4:6c:83:8a:db:0f:ac:39:18:50:
         6d:9e:76:03:02:b8:5b:39:14:fc:76:60:53:75:c8:93:be:cf:
         d9:73:b7:53:6e:5a:99:36:e0:ad:dc:81:36:c8:6c:be:51:09:
         ed:2d:a7:cf:c8:ce:fb:e6:c8:7a:ee:c6:26:32:a3:50:90:f2:
         30:10:3e:c0:c9:a5:fd:99:a2:28:f1:72:77:16:83:8e:fd:28:
         80:ec:80:c3:77:e1:7b:dd:9c:64:ef:f5:a2:e7:e6:55:8a:90:
         cb:27:59:95:14:ed:82:df:9e:3e:2f:63:c3:82:5c:94:8d:aa:
         7e:f9:fc:32:04:d9:1b:e3:12:26:ce:3c:fd:15:d4:1e:d6:42:
         9d:54:37:11:1c:b1:2f:c0:a6:71:26:b8:4e:70:79:fb:88:0a:
         59:3e:24:69:9b:27:ff:f1:0a:4c:1a:23:8f:61:44:1c:0b:45:
         b3:34:25:00:a2:01:c1:17:9e:9f:bc:09:d9:ee:29:e3:71:94:
         4d:55:03:0a:5a:8a:97:75:99:3f:c1:c1:9d:ed:cd:b9:37:ab:
         06:10:13:b9:6e:57:6b:47:ea:f0:67:99:81:f6:98:69:4f:d9:
         07:8c:e4:ad:8e:29:fe:ca:77:2f:74:3b:5d:ef:c7:24:b4:d2:
         27:18:5d:85
-----BEGIN CERTIFICATE-----
MIIEYjCCA0qgAwIBAgIUaY+p3TfLQKgaqolSDn8svx4UXgMwDQYJKoZIhvcNAQEL
BQAwgYAxCzAJBgNVBAYTAlVTMQswCQYDVQQIDAJDQTERMA8GA1UEBwwIU2FyYXRv
Z2ExEjAQBgNVBAoMCUV4Y2VsZm9yZTEMMAoGA1UECwwDT01BMQswCQYDVQQDDAJD
QTEiMCAGCSqGSIb3DQEJARYTcGF3ZWxAZXhjZWxmb3JlLmNvbTAeFw0yNTAyMjIw
MDAwMDBaFw0zNTAyMjIxMzQ0NDlaMHkxCzAJBgNVBAYTAlVTMQswCQYDVQQIDAJD
QTERMA8GA1UEBwwIU2FyYXRvZ2ExEjAQBgNVBAoMCUV4Y2VsZm9yZTEWMBQGA1UE
CwwNeGw0X2RldmVsb3BlcjEeMBwGA1UEAwwVcHJpbnNoYS5wNTFAd2lwcm8uY29t
MIIBIjANBgkqhkiG9w0BAQEFAAOCAQ8AMIIBCgKCAQEArQZC0bfLDBnJEfTZ1VQI
jeRFUOVNSjUrA00bIhL1znz6qYVtngAqwmG7UN1tA7XCttXPlNk0DkEfNrWSXNjK
EaH/Kl/bQFLVGrhW31GiCeIJiC54Be+EPPEz3J9RtqStmRX8lyoch2dQGbcz+ZvP
SsQVxC99WPUe5LDjDgCClTK+t+yjcRrepuFMRRiAc9oEWkBI1LbwCUoo+okSxjDn
FbzZfjKk/mvxH0vZc1vHjx205NWcTM+G8Cr0Lf7NJ8rT42O4sj78QZeNYdL/nn29
bQULINFVMaoLwMJkyTCFD/5SAaG2nRx1WYELNO3f1YPf4KOXGWN37tTU9Br9epBw
ywIDAQABo4HZMIHWMAkGA1UdEwQCMAAwJAYJYIZIAYb4QgENBBcWFUV4Y2VsZm9y
ZSBkZXZpY2UgY2VydDAdBgNVHQ4EFgQUyGMQOenkqG6JB1nYLVBvK+xM5GcwHwYD
VR0jBBgwFoAUMNTLiOBqxkjdBN2QN9pCCfUOW6swMAYKKwYBBAGC4yEBBAQiDCBl
c3luY19zc286OnByaW5zaGEucDUxQHdpcHJvLmNvbTAWBgorBgEEAYLjIQEBBAgx
BhYEc2lnbjAZBgorBgEEAYLjIQELBAsxCQwHZGVmYXVsdDANBgkqhkiG9w0BAQsF
AAOCAQEAI6MSdgdU/cHUbIOK2w+sORhQbZ52AwK4WzkU/HZgU3XIk77P2XO3U25a
mTbgrdyBNshsvlEJ7S2nz8jO++bIeu7GJjKjUJDyMBA+wMml/ZmiKPFydxaDjv0o
gOyAw3fhe92cZO/1oufmVYqQyydZlRTtgt+ePi9jw4JclI2qfvn8MgTZG+MSJs48
/RXUHtZCnVQ3ERyxL8CmcSa4TnB5+4gKWT4kaZsn//EKTBojj2FEHAtFszQlAKIB
wReen7wJ2e4p43GUTVUDClqKl3WZP8HBne3NuTerBhATuW5Xa0fq8GeZgfaYaU/Z
B4zkrY4p/sp3L3Q7Xe/HJLTSJxhdhQ==
-----END CERTIFICATE-----
